target datalayout = "e-m:e-p270:32:32-p271:32:32-p272:64:64-i64:64-i128:128-f80:128-n8:16:32:64-S128"
target triple = "x86_64-pc-linux-gnu"

%class.outputStream = type { ptr, i32, i8, i32, i64, %class.TimeStamp, ptr, i64 }
%class.TimeStamp = type { i64 }
%class.bufferedStream = type <{ %class.outputStream, ptr, i64, i64, i64, i8, [7 x i8] }>

@_ZTV12outputStream = linkonce_odr hidden unnamed_addr constant { [7 x ptr] } { [7 x ptr] [ptr null, ptr null, ptr @_ZN12outputStream5flushEv, ptr @__cxa_pure_virtual, ptr @_ZN12outputStream10rotate_logEbPS_, ptr @_ZN12outputStreamD2Ev, ptr @_ZN12outputStreamD0Ev] }, comdat, align 8
@_ZTV14bufferedStream = hidden unnamed_addr constant { [7 x ptr] } { [7 x ptr] [ptr null, ptr null, ptr @_ZN12outputStream5flushEv, ptr @_ZN14bufferedStream5writeEPKcm, ptr @_ZN12outputStream10rotate_logEbPS_, ptr @_ZN14bufferedStreamD1Ev, ptr @_ZN14bufferedStreamD0Ev] }, align 8

; Function Attrs: mustprogress nounwind uwtable
define linkonce_odr hidden void @_ZN9TimeStampC2Ev(ptr noundef nonnull align 8 dereferenceable(8) %0) unnamed_addr #1 comdat align 2 {
  %2 = alloca ptr, align 8
  store ptr %0, ptr %2, align 8
  %3 = load ptr, ptr %2, align 8
  %4 = getelementptr inbounds %class.TimeStamp, ptr %3, i32 0, i32 0
  store i64 0, ptr %4, align 8
  ret void
}

; Function Attrs: mustprogress nounwind uwtable
define hidden void @_ZN12outputStreamC2Eb(ptr noundef nonnull align 8 dereferenceable(56) %0, i1 noundef zeroext %1) unnamed_addr #1 align 2 {
  %3 = alloca ptr, align 8
  %4 = alloca i8, align 1
  store ptr %0, ptr %3, align 8
  %5 = zext i1 %1 to i8
  store i8 %5, ptr %4, align 1
  %6 = load ptr, ptr %3, align 8
  store ptr getelementptr inbounds inrange(-16, 40) ({ [7 x ptr] }, ptr @_ZTV12outputStream, i32 0, i32 0, i32 2), ptr %6, align 8
  %7 = getelementptr inbounds %class.outputStream, ptr %6, i32 0, i32 5
  call void @_ZN9TimeStampC2Ev(ptr noundef nonnull align 8 dereferenceable(8) %7)
  %8 = getelementptr inbounds %class.outputStream, ptr %6, i32 0, i32 3
  store i32 0, ptr %8, align 8
  %9 = getelementptr inbounds %class.outputStream, ptr %6, i32 0, i32 4
  store i64 0, ptr %9, align 8
  %10 = getelementptr inbounds %class.outputStream, ptr %6, i32 0, i32 1
  store i32 0, ptr %10, align 8
  %11 = getelementptr inbounds %class.outputStream, ptr %6, i32 0, i32 2
  store i8 0, ptr %11, align 4
  %12 = getelementptr inbounds %class.outputStream, ptr %6, i32 0, i32 6
  store ptr null, ptr %12, align 8
  %13 = getelementptr inbounds %class.outputStream, ptr %6, i32 0, i32 7
  store i64 0, ptr %13, align 8
  %14 = load i8, ptr %4, align 1
  %15 = trunc i8 %14 to i1
  br i1 %15, label %16, label %18

16:                                               ; preds = %2
  %17 = getelementptr inbounds %class.outputStream, ptr %6, i32 0, i32 5
  call void @_ZN9TimeStamp6updateEv(ptr noundef nonnull align 8 dereferenceable(8) %17)
  br label %18

18:                                               ; preds = %16, %2
  ret void
}

; Function Attrs: mustprogress nounwind uwtable
define hidden void @_ZN14bufferedStreamC2Emm(ptr noundef nonnull align 8 dereferenceable(89) %0, i64 noundef %1, i64 noundef %2) unnamed_addr #1 align 2 {
  %4 = alloca ptr, align 8
  %5 = alloca i64, align 8
  %6 = alloca i64, align 8
  store ptr %0, ptr %4, align 8
  store i64 %1, ptr %5, align 8
  store i64 %2, ptr %6, align 8
  %7 = load ptr, ptr %4, align 8
  call void @_ZN12outputStreamC2Eb(ptr noundef nonnull align 8 dereferenceable(56) %7, i1 noundef zeroext false)
  store ptr getelementptr inbounds inrange(-16, 40) ({ [7 x ptr] }, ptr @_ZTV14bufferedStream, i32 0, i32 0, i32 2), ptr %7, align 8
  %8 = load i64, ptr %5, align 8
  %9 = getelementptr inbounds %class.bufferedStream, ptr %7, i32 0, i32 4
  store i64 %8, ptr %9, align 8
  %10 = getelementptr inbounds %class.bufferedStream, ptr %7, i32 0, i32 4
  %11 = load i64, ptr %10, align 8
  %12 = mul i64 %11, 1
  %13 = call noundef ptr @_Z12AllocateHeapm8MEMFLAGSN17AllocFailStrategy13AllocFailEnumE(i64 noundef %12, i8 noundef zeroext 9, i32 noundef 0)
  %14 = getelementptr inbounds %class.bufferedStream, ptr %7, i32 0, i32 1
  store ptr %13, ptr %14, align 8
  %15 = getelementptr inbounds %class.bufferedStream, ptr %7, i32 0, i32 2
  store i64 0, ptr %15, align 8
  %16 = load i64, ptr %6, align 8
  %17 = getelementptr inbounds %class.bufferedStream, ptr %7, i32 0, i32 3
  store i64 %16, ptr %17, align 8
  %18 = getelementptr inbounds %class.bufferedStream, ptr %7, i32 0, i32 5
  store i8 0, ptr %18, align 8
  ret void
}