; Function Attrs: mustprogress nounwind uwtable
define hidden void @_ZN14bufferedStreamC2Emm(ptr nocapture noundef nonnull writeonly align 8 dereferenceable(89) %0, i64 noundef %1, i64 noundef %2) unnamed_addr #0 align 2 {
  %4 = getelementptr inbounds i8, ptr %0, i64 16
  store i32 0, ptr %4, align 8
  %5 = getelementptr inbounds i8, ptr %0, i64 24
  %6 = getelementptr inbounds i8, ptr %0, i64 8
  store i32 0, ptr %6, align 8
  %7 = getelementptr inbounds i8, ptr %0, i64 12
  store i8 0, ptr %7, align 4
  tail call void @llvm.memset.p0.i64(ptr noundef nonnull align 8 dereferenceable(32) %5, i8 0, i64 32, i1 false)
  store ptr getelementptr inbounds inrange(-16, 40) (i8, ptr @_ZTV14bufferedStream, i64 16), ptr %0, align 8
  %8 = getelementptr inbounds i8, ptr %0, i64 80
  store i64 %1, ptr %8, align 8
  %9 = tail call noundef ptr @_Z12AllocateHeapm8MEMFLAGSN17AllocFailStrategy13AllocFailEnumE(i64 noundef %1, i8 noundef zeroext 9, i32 noundef 0) #21
  %10 = getelementptr inbounds i8, ptr %0, i64 56
  store ptr %9, ptr %10, align 8
  %11 = getelementptr inbounds i8, ptr %0, i64 64
  store i64 0, ptr %11, align 8
  %12 = getelementptr inbounds i8, ptr %0, i64 72
  store i64 %2, ptr %12, align 8
  %13 = getelementptr inbounds i8, ptr %0, i64 88
  store i8 0, ptr %13, align 8
  ret void
}